target datalayout = "e-m:e-p270:32:32-p271:32:32-p272:64:64-i64:64-i128:128-f80:128-n8:16:32:64-S128"
target triple = "x86_64-pc-linux-gnu"

@hf_gsm_a_dtap_gcc_state_attr = internal global i32 0, align 4
@hf_gsm_a_dtap_gcc_state_attr_da = internal global i32 0, align 4
@hf_gsm_a_dtap_gcc_state_attr_ua = internal global i32 0, align 4
@hf_gsm_a_dtap_gcc_state_attr_comm = internal global i32 0, align 4
@hf_gsm_a_dtap_gcc_state_attr_oi = internal global i32 0, align 4

; Function Attrs: null_pointer_is_valid sspstrong uwtable
define internal zeroext i16 @de_gcc_state_attr(ptr noundef %0, ptr noundef %1, ptr noundef %2, i32 noundef %3, i32 noundef %4, ptr noundef %5, i32 noundef %6) #1 {
  %8 = alloca ptr, align 8
  %9 = alloca ptr, align 8
  %10 = alloca ptr, align 8
  %11 = alloca i32, align 4
  %12 = alloca i32, align 4
  %13 = alloca ptr, align 8
  %14 = alloca i32, align 4
  store ptr %0, ptr %8, align 8
  store ptr %1, ptr %9, align 8
  store ptr %2, ptr %10, align 8
  store i32 %3, ptr %11, align 4
  store i32 %4, ptr %12, align 4
  store ptr %5, ptr %13, align 8
  store i32 %6, ptr %14, align 4
  %15 = load ptr, ptr %9, align 8
  %16 = load i32, ptr @hf_gsm_a_dtap_gcc_state_attr, align 4
  %17 = load ptr, ptr %8, align 8
  %18 = load i32, ptr %11, align 4
  %19 = call ptr @proto_tree_add_item(ptr noundef %15, i32 noundef %16, ptr noundef %17, i32 noundef %18, i32 noundef 1, i32 noundef 0)
  %20 = load ptr, ptr %9, align 8
  %21 = load i32, ptr @hf_gsm_a_dtap_gcc_state_attr_da, align 4
  %22 = load ptr, ptr %8, align 8
  %23 = load i32, ptr %11, align 4
  %24 = call ptr @proto_tree_add_item(ptr noundef %20, i32 noundef %21, ptr noundef %22, i32 noundef %23, i32 noundef 1, i32 noundef 0)
  %25 = load ptr, ptr %9, align 8
  %26 = load i32, ptr @hf_gsm_a_dtap_gcc_state_attr_ua, align 4
  %27 = load ptr, ptr %8, align 8
  %28 = load i32, ptr %11, align 4
  %29 = call ptr @proto_tree_add_item(ptr noundef %25, i32 noundef %26, ptr noundef %27, i32 noundef %28, i32 noundef 1, i32 noundef 0)
  %30 = load ptr, ptr %9, align 8
  %31 = load i32, ptr @hf_gsm_a_dtap_gcc_state_attr_comm, align 4
  %32 = load ptr, ptr %8, align 8
  %33 = load i32, ptr %11, align 4
  %34 = call ptr @proto_tree_add_item(ptr noundef %30, i32 noundef %31, ptr noundef %32, i32 noundef %33, i32 noundef 1, i32 noundef 0)
  %35 = load ptr, ptr %9, align 8
  %36 = load i32, ptr @hf_gsm_a_dtap_gcc_state_attr_oi, align 4
  %37 = load ptr, ptr %8, align 8
  %38 = load i32, ptr %11, align 4
  %39 = call ptr @proto_tree_add_item(ptr noundef %35, i32 noundef %36, ptr noundef %37, i32 noundef %38, i32 noundef 1, i32 noundef 0)
  ret i16 1
}